; Function Attrs: mustprogress uwtable
define dso_local void @_ZNK4absl8TimeZone2AtENS_13time_internal4cctz6detail10civil_timeINS1_10second_tagEEE(ptr dead_on_unwind noalias writable writeonly sret(%"struct.absl::TimeZone::TimeInfo") align 4 captures(none) initializes((4, 40)) %0, ptr noundef nonnull align 8 dereferenceable(8) %1, i64 %2, i64 %3) local_unnamed_addr #0 align 2 {
  %5 = alloca %"class.absl::time_internal::cctz::detail::civil_time", align 8
  %6 = alloca %"struct.absl::time_internal::cctz::time_zone::civil_lookup", align 8
  call void @llvm.lifetime.start.p0(i64 16, ptr nonnull %5) #13
  store i64 %2, ptr %5, align 8
  %.sroa.2.0..sroa_idx.i.i = getelementptr inbounds nuw i8, ptr %5, i64 8
  %.sroa.2.0.extract.trunc.i.i = trunc i64 %3 to i40
  store i40 %.sroa.2.0.extract.trunc.i.i, ptr %.sroa.2.0..sroa_idx.i.i, align 8
  call void @llvm.lifetime.start.p0(i64 32, ptr nonnull %6) #13
  call void @_ZNK4absl13time_internal4cctz9time_zone6lookupERKNS1_6detail10civil_timeINS3_10second_tagEEE(ptr dead_on_unwind nonnull writable sret(%"struct.absl::time_internal::cctz::time_zone::civil_lookup") align 8 %6, ptr noundef nonnull align 8 dereferenceable(8) %1, ptr noundef nonnull align 8 dereferenceable(16) %5)
  %7 = load i32, ptr %6, align 8, !tbaa !57
  %switch = icmp ult i32 %7, 3
  br i1 %switch, label %.sink.split, label %8

.sink.split:                                      ; preds = %4
  store i32 %7, ptr %0, align 4, !tbaa !62
  br label %8

8:                                                ; preds = %4, %.sink.split
  %9 = getelementptr inbounds nuw i8, ptr %0, i64 4
  %10 = getelementptr inbounds nuw i8, ptr %6, i64 8
  %11 = call fastcc { i64, i32 } @_ZN4absl12_GLOBAL__N_120MakeTimeWithOverflowERKNSt6chrono10time_pointINS1_3_V212system_clockENS1_8durationIlSt5ratioILl1ELl1EEEEEERKNS_13time_internal4cctz6detail10civil_timeINSE_10second_tagEEERKNSD_9time_zoneEPb(ptr noundef nonnull align 8 dereferenceable(8) %10, ptr noundef nonnull align 8 dereferenceable(16) %5, ptr noundef nonnull align 8 dereferenceable(8) %1)
  %.fca.0.extract8 = extractvalue { i64, i32 } %11, 0
  %.fca.1.extract9 = extractvalue { i64, i32 } %11, 1
  store i64 %.fca.0.extract8, ptr %9, align 4
  %.sroa.413.0..sroa_idx = getelementptr inbounds nuw i8, ptr %0, i64 12
  store i32 %.fca.1.extract9, ptr %.sroa.413.0..sroa_idx, align 4, !tbaa !4
  %12 = getelementptr inbounds nuw i8, ptr %6, i64 16
  %13 = call fastcc { i64, i32 } @_ZN4absl12_GLOBAL__N_120MakeTimeWithOverflowERKNSt6chrono10time_pointINS1_3_V212system_clockENS1_8durationIlSt5ratioILl1ELl1EEEEEERKNS_13time_internal4cctz6detail10civil_timeINSE_10second_tagEEERKNSD_9time_zoneEPb(ptr noundef nonnull align 8 dereferenceable(8) %12, ptr noundef nonnull align 8 dereferenceable(16) %5, ptr noundef nonnull align 8 dereferenceable(8) %1)
  %.fca.0.extract2 = extractvalue { i64, i32 } %13, 0
  %.fca.1.extract3 = extractvalue { i64, i32 } %13, 1
  %14 = getelementptr inbounds nuw i8, ptr %0, i64 16
  store i64 %.fca.0.extract2, ptr %14, align 4
  %.sroa.47.0..sroa_idx = getelementptr inbounds nuw i8, ptr %0, i64 24
  store i32 %.fca.1.extract3, ptr %.sroa.47.0..sroa_idx, align 4, !tbaa !4
  %15 = getelementptr inbounds nuw i8, ptr %6, i64 24
  %16 = call fastcc { i64, i32 } @_ZN4absl12_GLOBAL__N_120MakeTimeWithOverflowERKNSt6chrono10time_pointINS1_3_V212system_clockENS1_8durationIlSt5ratioILl1ELl1EEEEEERKNS_13time_internal4cctz6detail10civil_timeINSE_10second_tagEEERKNSD_9time_zoneEPb(ptr noundef nonnull align 8 dereferenceable(8) %15, ptr noundef nonnull align 8 dereferenceable(16) %5, ptr noundef nonnull align 8 dereferenceable(8) %1)
  %.fca.0.extract = extractvalue { i64, i32 } %16, 0
  %.fca.1.extract = extractvalue { i64, i32 } %16, 1
  %17 = getelementptr inbounds nuw i8, ptr %0, i64 28
  store i64 %.fca.0.extract, ptr %17, align 4
  %.sroa.4.0..sroa_idx = getelementptr inbounds nuw i8, ptr %0, i64 36
  store i32 %.fca.1.extract, ptr %.sroa.4.0..sroa_idx, align 4, !tbaa !4
  call void @llvm.lifetime.end.p0(i64 32, ptr nonnull %6) #13
  call void @llvm.lifetime.end.p0(i64 16, ptr nonnull %5) #13
  ret void
}